; Function Attrs: nounwind uwtable
define range(i32 -2147483648, 1) i32 @avio_accept(ptr noundef readonly captures(none) %0, ptr noundef captures(none) %1) local_unnamed_addr #3 {
  %3 = alloca ptr, align 8
  %4 = getelementptr inbounds nuw i8, ptr %0, i64 40
  %5 = load ptr, ptr %4, align 8, !tbaa !4
  call void @llvm.lifetime.start.p0(i64 8, ptr nonnull %3) #12
  store ptr null, ptr %3, align 8, !tbaa !41
  %6 = getelementptr inbounds nuw i8, ptr %5, i64 8
  %7 = load ptr, ptr %6, align 8, !tbaa !21
  %8 = getelementptr inbounds nuw i8, ptr %7, i64 24
  %9 = load ptr, ptr %8, align 8, !tbaa !43
  %.not6.i = icmp eq ptr %9, null
  br i1 %.not6.i, label %ffurl_accept.exit.thread, label %ffurl_accept.exit

ffurl_accept.exit:                                ; preds = %2
  %10 = call i32 %9(ptr noundef nonnull %5, ptr noundef nonnull %3) #12
  %11 = icmp slt i32 %10, 0
  br i1 %11, label %ffurl_accept.exit.thread, label %12

12:                                               ; preds = %ffurl_accept.exit
  %13 = load ptr, ptr %3, align 8, !tbaa !41
  %14 = call i32 @ffio_fdopen(ptr noundef %1, ptr noundef %13)
  br label %ffurl_accept.exit.thread

ffurl_accept.exit.thread:                         ; preds = %2, %ffurl_accept.exit, %12
  %.0 = phi i32 [ %14, %12 ], [ %10, %ffurl_accept.exit ], [ -9, %2 ]
  call void @llvm.lifetime.end.p0(i64 8, ptr nonnull %3) #12
  ret i32 %.0
}